target datalayout = "e-m:e-p270:32:32-p271:32:32-p272:64:64-i64:64-i128:128-f80:128-n8:16:32:64-S128"
target triple = "x86_64-pc-linux-gnu"

%"class.std::__cxx11::basic_string" = type { %"struct.std::__cxx11::basic_string<char>::_Alloc_hider", i64, %union.anon }
%"struct.std::__cxx11::basic_string<char>::_Alloc_hider" = type { ptr }
%union.anon = type { i64, [8 x i8] }
%"class.std::__cxx11::basic_stringstream" = type { %"class.std::basic_iostream.base", %"class.std::__cxx11::basic_stringbuf", %"class.std::basic_ios" }
%"class.std::basic_iostream.base" = type { %"class.std::basic_istream.base", %"class.std::basic_ostream.base" }
%"class.std::basic_istream.base" = type { ptr, i64 }
%"class.std::basic_ostream.base" = type { ptr }
%"class.std::__cxx11::basic_stringbuf" = type { %"class.std::basic_streambuf", i32, %"class.std::__cxx11::basic_string" }
%"class.std::basic_streambuf" = type { ptr, ptr, ptr, ptr, ptr, ptr, ptr, %"class.std::locale" }
%"class.std::locale" = type { ptr }
%"class.std::basic_ios" = type { %"class.std::ios_base", ptr, i8, i8, ptr, ptr, ptr, ptr }
%"class.std::ios_base" = type { ptr, i64, i64, i32, i32, i32, ptr, %"struct.std::ios_base::_Words", [8 x %"struct.std::ios_base::_Words"], i32, ptr, %"class.std::locale" }
%"struct.std::ios_base::_Words" = type { ptr, i64 }
%"struct.std::_Setw" = type { i32 }

@.str.2 = private unnamed_addr constant [5 x i8] c"Name\00", align 1
@.str.3 = private unnamed_addr constant [6 x i8] c"Count\00", align 1
@.str.4 = private unnamed_addr constant [5 x i8] c"User\00", align 1
@.str.5 = private unnamed_addr constant [4 x i8] c"Avg\00", align 1
@.str.6 = private unnamed_addr constant [2 x i8] c"%\00", align 1
@.str.7 = private unnamed_addr constant [5 x i8] c"Syst\00", align 1
@.str.8 = private unnamed_addr constant [2 x i8] c"\0A\00", align 1

; Function Attrs: mustprogress nounwind uwtable
define linkonce_odr i32 @_ZSt4setwi(i32 noundef %0) #5 comdat {
  %2 = alloca %"struct.std::_Setw", align 4
  %3 = alloca i32, align 4
  store i32 %0, ptr %3, align 4
  %4 = getelementptr inbounds nuw %"struct.std::_Setw", ptr %2, i32 0, i32 0
  %5 = load i32, ptr %3, align 4
  store i32 %5, ptr %4, align 4
  %6 = getelementptr inbounds nuw %"struct.std::_Setw", ptr %2, i32 0, i32 0
  %7 = load i32, ptr %6, align 4
  ret i32 %7
}

; Function Attrs: mustprogress uwtable
define void @_ZNK10TimerGroup6HeaderB5cxx11Ev(ptr dead_on_unwind noalias writable sret(%"class.std::__cxx11::basic_string") align 8 %0, ptr noundef nonnull align 8 dereferenceable(56) %1) #4 align 2 personality ptr @__gxx_personality_v0 {
  %3 = alloca ptr, align 8
  %4 = alloca ptr, align 8
  %5 = alloca %"class.std::__cxx11::basic_stringstream", align 8
  %6 = alloca %"struct.std::_Setw", align 4
  %7 = alloca ptr, align 8
  %8 = alloca i32, align 4
  %9 = alloca %"struct.std::_Setw", align 4
  %10 = alloca %"struct.std::_Setw", align 4
  %11 = alloca %"struct.std::_Setw", align 4
  %12 = alloca %"struct.std::_Setw", align 4
  %13 = alloca %"struct.std::_Setw", align 4
  %14 = alloca %"struct.std::_Setw", align 4
  %15 = alloca %"struct.std::_Setw", align 4
  store ptr %0, ptr %3, align 8
  store ptr %1, ptr %4, align 8
  call void @_ZNSt7__cxx1118basic_stringstreamIcSt11char_traitsIcESaIcEEC1Ev(ptr noundef nonnull align 8 dereferenceable(128) %5)
  %16 = getelementptr inbounds i8, ptr %5, i64 16
  %17 = invoke i32 @_ZSt4setwi(i32 noundef 14)
          to label %18 unwind label %96

18:                                               ; preds = %2
  %19 = getelementptr inbounds nuw %"struct.std::_Setw", ptr %6, i32 0, i32 0
  store i32 %17, ptr %19, align 4
  %20 = getelementptr inbounds nuw %"struct.std::_Setw", ptr %6, i32 0, i32 0
  %21 = load i32, ptr %20, align 4
  %22 = invoke noundef nonnull align 8 dereferenceable(8) ptr @_ZStlsIcSt11char_traitsIcEERSt13basic_ostreamIT_T0_ES6_St5_Setw(ptr noundef nonnull align 8 dereferenceable(8) %16, i32 %21)
          to label %23 unwind label %96

23:                                               ; preds = %18
  %24 = invoke noundef nonnull align 8 dereferenceable(8) ptr @_ZNSolsEPFRSt8ios_baseS0_E(ptr noundef nonnull align 8 dereferenceable(8) %22, ptr noundef @_ZSt4leftRSt8ios_base)
          to label %25 unwind label %96

25:                                               ; preds = %23
  %26 = invoke noundef nonnull align 8 dereferenceable(8) ptr @_ZStlsISt11char_traitsIcEERSt13basic_ostreamIcT_ES5_PKc(ptr noundef nonnull align 8 dereferenceable(8) %24, ptr noundef @.str.2)
          to label %27 unwind label %96

27:                                               ; preds = %25
  %28 = invoke i32 @_ZSt4setwi(i32 noundef 9)
          to label %29 unwind label %96

29:                                               ; preds = %27
  %30 = getelementptr inbounds nuw %"struct.std::_Setw", ptr %9, i32 0, i32 0
  store i32 %28, ptr %30, align 4
  %31 = getelementptr inbounds nuw %"struct.std::_Setw", ptr %9, i32 0, i32 0
  %32 = load i32, ptr %31, align 4
  %33 = invoke noundef nonnull align 8 dereferenceable(8) ptr @_ZStlsIcSt11char_traitsIcEERSt13basic_ostreamIT_T0_ES6_St5_Setw(ptr noundef nonnull align 8 dereferenceable(8) %26, i32 %32)
          to label %34 unwind label %96

34:                                               ; preds = %29
  %35 = invoke noundef nonnull align 8 dereferenceable(8) ptr @_ZNSolsEPFRSt8ios_baseS0_E(ptr noundef nonnull align 8 dereferenceable(8) %33, ptr noundef @_ZSt5rightRSt8ios_base)
          to label %36 unwind label %96

36:                                               ; preds = %34
  %37 = invoke noundef nonnull align 8 dereferenceable(8) ptr @_ZStlsISt11char_traitsIcEERSt13basic_ostreamIcT_ES5_PKc(ptr noundef nonnull align 8 dereferenceable(8) %35, ptr noundef @.str.3)
          to label %38 unwind label %96

38:                                               ; preds = %36
  %39 = invoke i32 @_ZSt4setwi(i32 noundef 11)
          to label %40 unwind label %96

40:                                               ; preds = %38
  %41 = getelementptr inbounds nuw %"struct.std::_Setw", ptr %10, i32 0, i32 0
  store i32 %39, ptr %41, align 4
  %42 = getelementptr inbounds nuw %"struct.std::_Setw", ptr %10, i32 0, i32 0
  %43 = load i32, ptr %42, align 4
  %44 = invoke noundef nonnull align 8 dereferenceable(8) ptr @_ZStlsIcSt11char_traitsIcEERSt13basic_ostreamIT_T0_ES6_St5_Setw(ptr noundef nonnull align 8 dereferenceable(8) %37, i32 %43)
          to label %45 unwind label %96

45:                                               ; preds = %40
  %46 = invoke noundef nonnull align 8 dereferenceable(8) ptr @_ZStlsISt11char_traitsIcEERSt13basic_ostreamIcT_ES5_PKc(ptr noundef nonnull align 8 dereferenceable(8) %44, ptr noundef @.str.4)
          to label %47 unwind label %96

47:                                               ; preds = %45
  %48 = invoke i32 @_ZSt4setwi(i32 noundef 7)
          to label %49 unwind label %96

49:                                               ; preds = %47
  %50 = getelementptr inbounds nuw %"struct.std::_Setw", ptr %11, i32 0, i32 0
  store i32 %48, ptr %50, align 4
  %51 = getelementptr inbounds nuw %"struct.std::_Setw", ptr %11, i32 0, i32 0
  %52 = load i32, ptr %51, align 4
  %53 = invoke noundef nonnull align 8 dereferenceable(8) ptr @_ZStlsIcSt11char_traitsIcEERSt13basic_ostreamIT_T0_ES6_St5_Setw(ptr noundef nonnull align 8 dereferenceable(8) %46, i32 %52)
          to label %54 unwind label %96

54:                                               ; preds = %49
  %55 = invoke noundef nonnull align 8 dereferenceable(8) ptr @_ZStlsISt11char_traitsIcEERSt13basic_ostreamIcT_ES5_PKc(ptr noundef nonnull align 8 dereferenceable(8) %53, ptr noundef @.str.5)
          to label %56 unwind label %96

56:                                               ; preds = %54
  %57 = invoke i32 @_ZSt4setwi(i32 noundef 5)
          to label %58 unwind label %96

58:                                               ; preds = %56
  %59 = getelementptr inbounds nuw %"struct.std::_Setw", ptr %12, i32 0, i32 0
  store i32 %57, ptr %59, align 4
  %60 = getelementptr inbounds nuw %"struct.std::_Setw", ptr %12, i32 0, i32 0
  %61 = load i32, ptr %60, align 4
  %62 = invoke noundef nonnull align 8 dereferenceable(8) ptr @_ZStlsIcSt11char_traitsIcEERSt13basic_ostreamIT_T0_ES6_St5_Setw(ptr noundef nonnull align 8 dereferenceable(8) %55, i32 %61)
          to label %63 unwind label %96

63:                                               ; preds = %58
  %64 = invoke noundef nonnull align 8 dereferenceable(8) ptr @_ZStlsISt11char_traitsIcEERSt13basic_ostreamIcT_ES5_PKc(ptr noundef nonnull align 8 dereferenceable(8) %62, ptr noundef @.str.6)
          to label %65 unwind label %96

65:                                               ; preds = %63
  %66 = invoke i32 @_ZSt4setwi(i32 noundef 11)
          to label %67 unwind label %96

67:                                               ; preds = %65
  %68 = getelementptr inbounds nuw %"struct.std::_Setw", ptr %13, i32 0, i32 0
  store i32 %66, ptr %68, align 4
  %69 = getelementptr inbounds nuw %"struct.std::_Setw", ptr %13, i32 0, i32 0
  %70 = load i32, ptr %69, align 4
  %71 = invoke noundef nonnull align 8 dereferenceable(8) ptr @_ZStlsIcSt11char_traitsIcEERSt13basic_ostreamIT_T0_ES6_St5_Setw(ptr noundef nonnull align 8 dereferenceable(8) %64, i32 %70)
          to label %72 unwind label %96

72:                                               ; preds = %67
  %73 = invoke noundef nonnull align 8 dereferenceable(8) ptr @_ZStlsISt11char_traitsIcEERSt13basic_ostreamIcT_ES5_PKc(ptr noundef nonnull align 8 dereferenceable(8) %71, ptr noundef @.str.7)
          to label %74 unwind label %96

74:                                               ; preds = %72
  %75 = invoke i32 @_ZSt4setwi(i32 noundef 7)
          to label %76 unwind label %96

76:                                               ; preds = %74
  %77 = getelementptr inbounds nuw %"struct.std::_Setw", ptr %14, i32 0, i32 0
  store i32 %75, ptr %77, align 4
  %78 = getelementptr inbounds nuw %"struct.std::_Setw", ptr %14, i32 0, i32 0
  %79 = load i32, ptr %78, align 4
  %80 = invoke noundef nonnull align 8 dereferenceable(8) ptr @_ZStlsIcSt11char_traitsIcEERSt13basic_ostreamIT_T0_ES6_St5_Setw(ptr noundef nonnull align 8 dereferenceable(8) %73, i32 %79)
          to label %81 unwind label %96

81:                                               ; preds = %76
  %82 = invoke noundef nonnull align 8 dereferenceable(8) ptr @_ZStlsISt11char_traitsIcEERSt13basic_ostreamIcT_ES5_PKc(ptr noundef nonnull align 8 dereferenceable(8) %80, ptr noundef @.str.5)
          to label %83 unwind label %96

83:                                               ; preds = %81
  %84 = invoke i32 @_ZSt4setwi(i32 noundef 5)
          to label %85 unwind label %96

85:                                               ; preds = %83
  %86 = getelementptr inbounds nuw %"struct.std::_Setw", ptr %15, i32 0, i32 0
  store i32 %84, ptr %86, align 4
  %87 = getelementptr inbounds nuw %"struct.std::_Setw", ptr %15, i32 0, i32 0
  %88 = load i32, ptr %87, align 4
  %89 = invoke noundef nonnull align 8 dereferenceable(8) ptr @_ZStlsIcSt11char_traitsIcEERSt13basic_ostreamIT_T0_ES6_St5_Setw(ptr noundef nonnull align 8 dereferenceable(8) %82, i32 %88)
          to label %90 unwind label %96

90:                                               ; preds = %85
  %91 = invoke noundef nonnull align 8 dereferenceable(8) ptr @_ZStlsISt11char_traitsIcEERSt13basic_ostreamIcT_ES5_PKc(ptr noundef nonnull align 8 dereferenceable(8) %89, ptr noundef @.str.6)
          to label %92 unwind label %96

92:                                               ; preds = %90
  %93 = invoke noundef nonnull align 8 dereferenceable(8) ptr @_ZStlsISt11char_traitsIcEERSt13basic_ostreamIcT_ES5_PKc(ptr noundef nonnull align 8 dereferenceable(8) %91, ptr noundef @.str.8)
          to label %94 unwind label %96

94:                                               ; preds = %92
  invoke void @_ZNKSt7__cxx1118basic_stringstreamIcSt11char_traitsIcESaIcEE3strEv(ptr dead_on_unwind writable sret(%"class.std::__cxx11::basic_string") align 8 %0, ptr noundef nonnull align 8 dereferenceable(128) %5)
          to label %95 unwind label %96

95:                                               ; preds = %94
  call void @_ZNSt7__cxx1118basic_stringstreamIcSt11char_traitsIcESaIcEED1Ev(ptr noundef nonnull align 8 dereferenceable(128) %5) #3
  ret void

96:                                               ; preds = %94, %92, %90, %85, %83, %81, %76, %74, %72, %67, %65, %63, %58, %56, %54, %49, %47, %45, %40, %38, %36, %34, %29, %27, %25, %23, %18, %2
  %97 = landingpad { ptr, i32 }
          cleanup
  %98 = extractvalue { ptr, i32 } %97, 0
  store ptr %98, ptr %7, align 8
  %99 = extractvalue { ptr, i32 } %97, 1
  store i32 %99, ptr %8, align 4
  call void @_ZNSt7__cxx1118basic_stringstreamIcSt11char_traitsIcESaIcEED1Ev(ptr noundef nonnull align 8 dereferenceable(128) %5) #3
  br label %100

100:                                              ; preds = %96
  %101 = load ptr, ptr %7, align 8
  %102 = load i32, ptr %8, align 4
  %103 = insertvalue { ptr, i32 } poison, ptr %101, 0
  %104 = insertvalue { ptr, i32 } %103, i32 %102, 1
  resume { ptr, i32 } %104
}