; Function Attrs: mustprogress uwtable
define void @_ZNK10TimerGroup6HeaderB5cxx11Ev(ptr dead_on_unwind noalias writable sret(%"class.std::__cxx11::basic_string") align 8 %0, ptr nocapture noundef nonnull readnone align 8 dereferenceable(56) %1) local_unnamed_addr #3 align 2 personality ptr @__gxx_personality_v0 {
  %3 = alloca %"class.std::__cxx11::basic_stringstream", align 8
  call void @_ZNSt7__cxx1118basic_stringstreamIcSt11char_traitsIcESaIcEEC1Ev(ptr noundef nonnull align 8 dereferenceable(128) %3)
  %4 = getelementptr inbounds i8, ptr %3, i64 16
  %5 = invoke noundef nonnull align 8 dereferenceable(8) ptr @_ZStlsIcSt11char_traitsIcEERSt13basic_ostreamIT_T0_ES6_St5_Setw(ptr noundef nonnull align 8 dereferenceable(8) %4, i32 14)
          to label %6 unwind label %44

6:                                                ; preds = %2
  %7 = invoke noundef nonnull align 8 dereferenceable(8) ptr @_ZNSolsEPFRSt8ios_baseS0_E(ptr noundef nonnull align 8 dereferenceable(8) %5, ptr noundef nonnull @_ZSt4leftRSt8ios_base)
          to label %8 unwind label %44

8:                                                ; preds = %6
  %9 = invoke noundef nonnull align 8 dereferenceable(8) ptr @_ZStlsISt11char_traitsIcEERSt13basic_ostreamIcT_ES5_PKc(ptr noundef nonnull align 8 dereferenceable(8) %7, ptr noundef nonnull @.str.2)
          to label %10 unwind label %44

10:                                               ; preds = %8
  %11 = invoke noundef nonnull align 8 dereferenceable(8) ptr @_ZStlsIcSt11char_traitsIcEERSt13basic_ostreamIT_T0_ES6_St5_Setw(ptr noundef nonnull align 8 dereferenceable(8) %9, i32 9)
          to label %12 unwind label %44

12:                                               ; preds = %10
  %13 = invoke noundef nonnull align 8 dereferenceable(8) ptr @_ZNSolsEPFRSt8ios_baseS0_E(ptr noundef nonnull align 8 dereferenceable(8) %11, ptr noundef nonnull @_ZSt5rightRSt8ios_base)
          to label %14 unwind label %44

14:                                               ; preds = %12
  %15 = invoke noundef nonnull align 8 dereferenceable(8) ptr @_ZStlsISt11char_traitsIcEERSt13basic_ostreamIcT_ES5_PKc(ptr noundef nonnull align 8 dereferenceable(8) %13, ptr noundef nonnull @.str.3)
          to label %16 unwind label %44

16:                                               ; preds = %14
  %17 = invoke noundef nonnull align 8 dereferenceable(8) ptr @_ZStlsIcSt11char_traitsIcEERSt13basic_ostreamIT_T0_ES6_St5_Setw(ptr noundef nonnull align 8 dereferenceable(8) %15, i32 11)
          to label %18 unwind label %44

18:                                               ; preds = %16
  %19 = invoke noundef nonnull align 8 dereferenceable(8) ptr @_ZStlsISt11char_traitsIcEERSt13basic_ostreamIcT_ES5_PKc(ptr noundef nonnull align 8 dereferenceable(8) %17, ptr noundef nonnull @.str.4)
          to label %20 unwind label %44

20:                                               ; preds = %18
  %21 = invoke noundef nonnull align 8 dereferenceable(8) ptr @_ZStlsIcSt11char_traitsIcEERSt13basic_ostreamIT_T0_ES6_St5_Setw(ptr noundef nonnull align 8 dereferenceable(8) %19, i32 7)
          to label %22 unwind label %44

22:                                               ; preds = %20
  %23 = invoke noundef nonnull align 8 dereferenceable(8) ptr @_ZStlsISt11char_traitsIcEERSt13basic_ostreamIcT_ES5_PKc(ptr noundef nonnull align 8 dereferenceable(8) %21, ptr noundef nonnull @.str.5)
          to label %24 unwind label %44

24:                                               ; preds = %22
  %25 = invoke noundef nonnull align 8 dereferenceable(8) ptr @_ZStlsIcSt11char_traitsIcEERSt13basic_ostreamIT_T0_ES6_St5_Setw(ptr noundef nonnull align 8 dereferenceable(8) %23, i32 5)
          to label %26 unwind label %44

26:                                               ; preds = %24
  %27 = invoke noundef nonnull align 8 dereferenceable(8) ptr @_ZStlsISt11char_traitsIcEERSt13basic_ostreamIcT_ES5_PKc(ptr noundef nonnull align 8 dereferenceable(8) %25, ptr noundef nonnull @.str.6)
          to label %28 unwind label %44

28:                                               ; preds = %26
  %29 = invoke noundef nonnull align 8 dereferenceable(8) ptr @_ZStlsIcSt11char_traitsIcEERSt13basic_ostreamIT_T0_ES6_St5_Setw(ptr noundef nonnull align 8 dereferenceable(8) %27, i32 11)
          to label %30 unwind label %44

30:                                               ; preds = %28
  %31 = invoke noundef nonnull align 8 dereferenceable(8) ptr @_ZStlsISt11char_traitsIcEERSt13basic_ostreamIcT_ES5_PKc(ptr noundef nonnull align 8 dereferenceable(8) %29, ptr noundef nonnull @.str.7)
          to label %32 unwind label %44

32:                                               ; preds = %30
  %33 = invoke noundef nonnull align 8 dereferenceable(8) ptr @_ZStlsIcSt11char_traitsIcEERSt13basic_ostreamIT_T0_ES6_St5_Setw(ptr noundef nonnull align 8 dereferenceable(8) %31, i32 7)
          to label %34 unwind label %44

34:                                               ; preds = %32
  %35 = invoke noundef nonnull align 8 dereferenceable(8) ptr @_ZStlsISt11char_traitsIcEERSt13basic_ostreamIcT_ES5_PKc(ptr noundef nonnull align 8 dereferenceable(8) %33, ptr noundef nonnull @.str.5)
          to label %36 unwind label %44

36:                                               ; preds = %34
  %37 = invoke noundef nonnull align 8 dereferenceable(8) ptr @_ZStlsIcSt11char_traitsIcEERSt13basic_ostreamIT_T0_ES6_St5_Setw(ptr noundef nonnull align 8 dereferenceable(8) %35, i32 5)
          to label %38 unwind label %44

38:                                               ; preds = %36
  %39 = invoke noundef nonnull align 8 dereferenceable(8) ptr @_ZStlsISt11char_traitsIcEERSt13basic_ostreamIcT_ES5_PKc(ptr noundef nonnull align 8 dereferenceable(8) %37, ptr noundef nonnull @.str.6)
          to label %40 unwind label %44

40:                                               ; preds = %38
  %41 = invoke noundef nonnull align 8 dereferenceable(8) ptr @_ZStlsISt11char_traitsIcEERSt13basic_ostreamIcT_ES5_PKc(ptr noundef nonnull align 8 dereferenceable(8) %39, ptr noundef nonnull @.str.8)
          to label %42 unwind label %44

42:                                               ; preds = %40
  invoke void @_ZNKSt7__cxx1118basic_stringstreamIcSt11char_traitsIcESaIcEE3strEv(ptr dead_on_unwind writable sret(%"class.std::__cxx11::basic_string") align 8 %0, ptr noundef nonnull align 8 dereferenceable(128) %3)
          to label %43 unwind label %44

43:                                               ; preds = %42
  call void @_ZNSt7__cxx1118basic_stringstreamIcSt11char_traitsIcESaIcEED1Ev(ptr noundef nonnull align 8 dereferenceable(128) %3) #15
  ret void

44:                                               ; preds = %42, %40, %38, %36, %34, %32, %30, %28, %26, %24, %22, %20, %18, %16, %14, %12, %10, %8, %6, %2
  %45 = landingpad { ptr, i32 }
          cleanup
  call void @_ZNSt7__cxx1118basic_stringstreamIcSt11char_traitsIcESaIcEED1Ev(ptr noundef nonnull align 8 dereferenceable(128) %3) #15
  resume { ptr, i32 } %45
}